target datalayout = "e-m:e-p270:32:32-p271:32:32-p272:64:64-i64:64-i128:128-f80:128-n8:16:32:64-S128"
target triple = "x86_64-pc-linux-gnu"

%"class.std::__shared_count" = type { ptr }
%"class.arrow::RecordBatch" = type { ptr, %"class.std::shared_ptr.21", i64 }
%"class.std::shared_ptr.21" = type { %"class.std::__shared_ptr.22" }
%"class.std::__shared_ptr.22" = type { ptr, %"class.std::__shared_count" }
%"class.std::shared_ptr.30" = type { %"class.std::__shared_ptr.31" }
%"class.std::__shared_ptr.31" = type { ptr, %"class.std::__shared_count" }

; Function Attrs: mustprogress nounwind uwtable
define linkonce_odr noundef i64 @_ZNK5arrow11RecordBatch8num_rowsEv(ptr noundef nonnull align 8 dereferenceable(32) %0) #0 comdat align 2 {
  %2 = alloca ptr, align 8
  store ptr %0, ptr %2, align 8, !tbaa !53
  %3 = load ptr, ptr %2, align 8
  %4 = getelementptr inbounds nuw %"class.arrow::RecordBatch", ptr %3, i32 0, i32 2
  %5 = load i64, ptr %4, align 8, !tbaa !77
  ret i64 %5
}

; Function Attrs: mustprogress uwtable
define void @_ZNK5arrow11RecordBatch5SliceEl(ptr dead_on_unwind noalias writable sret(%"class.std::shared_ptr.30") align 8 %0, ptr noundef nonnull align 8 dereferenceable(32) %1, i64 noundef %2) unnamed_addr #1 align 2 {
  %4 = alloca ptr, align 8
  %5 = alloca ptr, align 8
  %6 = alloca i64, align 8
  store ptr %0, ptr %4, align 8
  store ptr %1, ptr %5, align 8, !tbaa !53
  store i64 %2, ptr %6, align 8, !tbaa !43
  %7 = load ptr, ptr %5, align 8
  %8 = load i64, ptr %6, align 8, !tbaa !43
  %9 = call noundef i64 @_ZNK5arrow11RecordBatch8num_rowsEv(ptr noundef nonnull align 8 dereferenceable(32) %7)
  %10 = load i64, ptr %6, align 8, !tbaa !43
  %11 = sub nsw i64 %9, %10
  %12 = load ptr, ptr %7, align 8, !tbaa !59
  %13 = getelementptr inbounds ptr, ptr %12, i64 12
  %14 = load ptr, ptr %13, align 8
  call void %14(ptr dead_on_unwind writable sret(%"class.std::shared_ptr.30") align 8 %0, ptr noundef nonnull align 8 dereferenceable(32) %7, i64 noundef %8, i64 noundef %11)
  ret void
}