; Function Attrs: mustprogress uwtable
define void @_ZNK5arrow11RecordBatch5SliceEl(ptr dead_on_unwind noalias writable sret(%"class.std::shared_ptr.30") align 8 %0, ptr noundef nonnull align 8 dereferenceable(32) %1, i64 noundef %2) unnamed_addr #1 align 2 {
  %4 = getelementptr inbounds nuw i8, ptr %1, i64 24
  %5 = load i64, ptr %4, align 8, !tbaa !62
  %6 = sub nsw i64 %5, %2
  %7 = load ptr, ptr %1, align 8, !tbaa !56
  %8 = getelementptr inbounds nuw i8, ptr %7, i64 96
  %9 = load ptr, ptr %8, align 8
  tail call void %9(ptr dead_on_unwind writable sret(%"class.std::shared_ptr.30") align 8 %0, ptr noundef nonnull align 8 dereferenceable(32) %1, i64 noundef %2, i64 noundef %6)
  ret void
}